target datalayout = "e-m:e-p270:32:32-p271:32:32-p272:64:64-i64:64-i128:128-f80:128-n8:16:32:64-S128"
target triple = "x86_64-pc-linux-gnu"

%struct.grpc_context_info_t = type { i8, i32, ptr, ptr, ptr }
%struct._packet_info = type { ptr, ptr, i32, i32, %struct.nstime_t, %struct.nstime_t, %struct.nstime_t, i8, ptr, ptr, ptr, ptr, %struct._address, %struct._address, %struct._address, %struct._address, %struct._address, %struct._address, i32, ptr, i8, [3 x i8], %struct.anon, i32, i32, i32, i32, ptr, i8, ptr, ptr, i16, i16, i32, i32, i16, i32, i32, ptr, ptr, ptr, i8, i8, i16, i16, i16, i32, i16, i16, ptr, ptr, ptr, ptr, ptr, i32, i32 }
%struct.nstime_t = type { i64, i32 }
%struct._address = type { i32, i32, ptr, ptr }
%struct.anon = type { i8, [3 x i8] }

@hf_grpc_message_data = internal global i32 0, align 4
@grpc_detect_json_automatically = internal global i8 1, align 1
@grpc_message_type_subdissector_table = internal global ptr null, align 8
@.str.35 = private unnamed_addr constant [22 x i8] c"application/grpc+json\00", align 1
@data_text_lines_handle = internal global ptr null, align 8
@.str.77 = private unnamed_addr constant [9 x i8] c"%u bytes\00", align 1
@.str.78 = private unnamed_addr constant [2 x i8] c",\00", align 1
@.str.79 = private unnamed_addr constant [8 x i8] c"request\00", align 1
@.str.80 = private unnamed_addr constant [9 x i8] c"response\00", align 1

; Function Attrs: null_pointer_is_valid sspstrong uwtable
define internal void @dissect_body_data(ptr noundef %0, ptr noundef %1, ptr noundef %2, i32 noundef %3, i32 noundef %4, i1 noundef zeroext %5, i32 noundef %6, ptr noundef %7) #0 {
  %9 = alloca ptr, align 8
  %10 = alloca ptr, align 8
  %11 = alloca ptr, align 8
  %12 = alloca i32, align 4
  %13 = alloca i32, align 4
  %14 = alloca i8, align 1
  %15 = alloca i32, align 4
  %16 = alloca ptr, align 8
  %17 = alloca ptr, align 8
  %18 = alloca ptr, align 8
  %19 = alloca ptr, align 8
  %20 = alloca i32, align 4
  %21 = alloca ptr, align 8
  %22 = alloca i32, align 4
  %23 = alloca [3 x i8], align 1
  store ptr %0, ptr %9, align 8
  store ptr %1, ptr %10, align 8
  store ptr %2, ptr %11, align 8
  store i32 %3, ptr %12, align 4
  store i32 %4, ptr %13, align 4
  %24 = zext i1 %5 to i8
  store i8 %24, ptr %14, align 1
  store i32 %6, ptr %15, align 4
  store ptr %7, ptr %16, align 8
  call void @llvm.lifetime.start.p0(i64 8, ptr %17) #8
  %25 = load ptr, ptr %16, align 8
  %26 = getelementptr inbounds nuw %struct.grpc_context_info_t, ptr %25, i32 0, i32 3
  %27 = load ptr, ptr %26, align 8
  store ptr %27, ptr %17, align 8
  call void @llvm.lifetime.start.p0(i64 8, ptr %18) #8
  call void @llvm.lifetime.start.p0(i64 8, ptr %19) #8
  call void @llvm.lifetime.start.p0(i64 4, ptr %20) #8
  call void @llvm.lifetime.start.p0(i64 8, ptr %21) #8
  %28 = load ptr, ptr %9, align 8
  %29 = load i32, ptr @hf_grpc_message_data, align 4
  %30 = load ptr, ptr %11, align 8
  %31 = load i32, ptr %12, align 4
  %32 = load i32, ptr %13, align 4
  %33 = load i32, ptr %13, align 4
  %34 = call ptr (ptr, i32, ptr, i32, i32, ptr, ptr, ...) @proto_tree_add_bytes_format_value(ptr noundef %28, i32 noundef %29, ptr noundef %30, i32 noundef %31, i32 noundef %32, ptr noundef null, ptr noundef @.str.77, i32 noundef %33)
  %35 = load i32, ptr %15, align 4
  %36 = icmp eq i32 %35, 1
  br i1 %36, label %37, label %46

37:                                               ; preds = %8
  %38 = load ptr, ptr @data_text_lines_handle, align 8
  %39 = load ptr, ptr %11, align 8
  %40 = load i32, ptr %12, align 4
  %41 = load i32, ptr %13, align 4
  %42 = call ptr @tvb_new_subset_length(ptr noundef %39, i32 noundef %40, i32 noundef %41)
  %43 = load ptr, ptr %10, align 8
  %44 = load ptr, ptr %9, align 8
  %45 = call i32 @call_dissector(ptr noundef %38, ptr noundef %42, ptr noundef %43, ptr noundef %44)
  store i32 1, ptr %22, align 4
  br label %130

46:                                               ; preds = %8
  %47 = load i8, ptr %14, align 1, !range !10, !noundef !11
  %48 = trunc i8 %47 to i1
  br i1 %48, label %50, label %49

49:                                               ; preds = %46
  store i32 1, ptr %22, align 4
  br label %130

50:                                               ; preds = %46
  %51 = load ptr, ptr %17, align 8
  %52 = icmp eq ptr %51, null
  br i1 %52, label %58, label %53

53:                                               ; preds = %50
  %54 = load ptr, ptr %16, align 8
  %55 = getelementptr inbounds nuw %struct.grpc_context_info_t, ptr %54, i32 0, i32 2
  %56 = load ptr, ptr %55, align 8
  %57 = icmp eq ptr %56, null
  br i1 %57, label %58, label %59

58:                                               ; preds = %53, %50
  store i32 1, ptr %22, align 4
  br label %130

59:                                               ; preds = %53
  %60 = load ptr, ptr %11, align 8
  %61 = load i32, ptr %12, align 4
  %62 = load i32, ptr %13, align 4
  %63 = call ptr @tvb_new_subset_length(ptr noundef %60, i32 noundef %61, i32 noundef %62)
  store ptr %63, ptr %19, align 8
  %64 = load i8, ptr @grpc_detect_json_automatically, align 1, !range !10, !noundef !11
  %65 = trunc i8 %64 to i1
  br i1 %65, label %66, label %96

66:                                               ; preds = %59
  %67 = load i32, ptr %13, align 4
  %68 = icmp sgt i32 %67, 3
  br i1 %68, label %69, label %96

69:                                               ; preds = %66
  %70 = load ptr, ptr %19, align 8
  %71 = call zeroext i8 @tvb_get_uint8(ptr noundef %70, i32 noundef 0)
  %72 = zext i8 %71 to i32
  %73 = icmp eq i32 %72, 123
  br i1 %73, label %74, label %96

74:                                               ; preds = %69
  call void @llvm.lifetime.start.p0(i64 3, ptr %23) #8
  %75 = load ptr, ptr %19, align 8
  %76 = getelementptr inbounds [3 x i8], ptr %23, i64 0, i64 0
  %77 = load i32, ptr %13, align 4
  %78 = sub i32 %77, 3
  %79 = call ptr @tvb_memcpy(ptr noundef %75, ptr noundef %76, i32 noundef %78, i64 noundef 3)
  %80 = getelementptr [3 x i8], ptr %23, i64 0, i64 2
  %81 = load i8, ptr %80, align 1
  %82 = zext i8 %81 to i32
  %83 = icmp eq i32 %82, 125
  br i1 %83, label %94, label %84

84:                                               ; preds = %74
  %85 = getelementptr [3 x i8], ptr %23, i64 0, i64 1
  %86 = load i8, ptr %85, align 1
  %87 = zext i8 %86 to i32
  %88 = icmp eq i32 %87, 125
  br i1 %88, label %94, label %89

89:                                               ; preds = %84
  %90 = getelementptr [3 x i8], ptr %23, i64 0, i64 0
  %91 = load i8, ptr %90, align 1
  %92 = zext i8 %91 to i32
  %93 = icmp eq i32 %92, 125
  br i1 %93, label %94, label %95

94:                                               ; preds = %89, %84, %74
  store ptr @.str.35, ptr %17, align 8
  br label %95

95:                                               ; preds = %94, %89
  call void @llvm.lifetime.end.p0(i64 3, ptr %23) #8
  br label %96

96:                                               ; preds = %95, %69, %66, %59
  %97 = load ptr, ptr %10, align 8
  %98 = getelementptr inbounds nuw %struct._packet_info, ptr %97, i32 0, i32 51
  %99 = load ptr, ptr %98, align 8
  %100 = load ptr, ptr %17, align 8
  %101 = load ptr, ptr %16, align 8
  %102 = getelementptr inbounds nuw %struct.grpc_context_info_t, ptr %101, i32 0, i32 2
  %103 = load ptr, ptr %102, align 8
  %104 = load ptr, ptr %16, align 8
  %105 = getelementptr inbounds nuw %struct.grpc_context_info_t, ptr %104, i32 0, i32 0
  %106 = load i8, ptr %105, align 8, !range !10, !noundef !11
  %107 = trunc i8 %106 to i1
  %108 = select i1 %107, ptr @.str.79, ptr @.str.80
  %109 = call noalias ptr (ptr, ptr, ...) @wmem_strconcat(ptr noundef %99, ptr noundef %100, ptr noundef @.str.78, ptr noundef %103, ptr noundef @.str.78, ptr noundef %108, ptr noundef null)
  store ptr %109, ptr %18, align 8
  %110 = load ptr, ptr %9, align 8
  %111 = call ptr @proto_tree_get_parent_tree(ptr noundef %110)
  store ptr %111, ptr %21, align 8
  %112 = load ptr, ptr @grpc_message_type_subdissector_table, align 8
  %113 = load ptr, ptr %18, align 8
  %114 = load ptr, ptr %19, align 8
  %115 = load ptr, ptr %10, align 8
  %116 = load ptr, ptr %21, align 8
  %117 = load ptr, ptr %18, align 8
  %118 = call i32 @dissector_try_string_with_data(ptr noundef %112, ptr noundef %113, ptr noundef %114, ptr noundef %115, ptr noundef %116, i1 noundef zeroext true, ptr noundef %117)
  store i32 %118, ptr %20, align 4
  %119 = load i32, ptr %20, align 4
  %120 = icmp eq i32 %119, 0
  br i1 %120, label %121, label %129

121:                                              ; preds = %96
  %122 = load ptr, ptr @grpc_message_type_subdissector_table, align 8
  %123 = load ptr, ptr %17, align 8
  %124 = load ptr, ptr %19, align 8
  %125 = load ptr, ptr %10, align 8
  %126 = load ptr, ptr %21, align 8
  %127 = load ptr, ptr %18, align 8
  %128 = call i32 @dissector_try_string_with_data(ptr noundef %122, ptr noundef %123, ptr noundef %124, ptr noundef %125, ptr noundef %126, i1 noundef zeroext true, ptr noundef %127)
  br label %129

129:                                              ; preds = %121, %96
  store i32 0, ptr %22, align 4
  br label %130

130:                                              ; preds = %129, %58, %49, %37
  call void @llvm.lifetime.end.p0(i64 8, ptr %21) #8
  call void @llvm.lifetime.end.p0(i64 4, ptr %20) #8
  call void @llvm.lifetime.end.p0(i64 8, ptr %19) #8
  call void @llvm.lifetime.end.p0(i64 8, ptr %18) #8
  call void @llvm.lifetime.end.p0(i64 8, ptr %17) #8
  %131 = load i32, ptr %22, align 4
  switch i32 %131, label %133 [
    i32 0, label %132
    i32 1, label %132
  ]

132:                                              ; preds = %130, %130
  ret void

133:                                              ; preds = %130
  unreachable
}