; Function Attrs: null_pointer_is_valid sspstrong uwtable
define internal fastcc void @dissect_body_data(ptr noundef %0, ptr noundef %1, ptr noundef %2, i32 noundef %3, i32 noundef %4, i1 noundef zeroext %5, i32 noundef %6, ptr noundef nonnull readonly captures(none) %7) unnamed_addr #0 {
  %9 = alloca [3 x i8], align 1
  %10 = getelementptr inbounds nuw i8, ptr %7, i64 16
  %11 = load ptr, ptr %10, align 8
  %12 = load i32, ptr @hf_grpc_message_data, align 4
  %13 = tail call ptr (ptr, i32, ptr, i32, i32, ptr, ptr, ...) @proto_tree_add_bytes_format_value(ptr noundef %0, i32 noundef %12, ptr noundef %2, i32 noundef %3, i32 noundef %4, ptr noundef null, ptr noundef nonnull @.str.77, i32 noundef %4)
  %14 = icmp eq i32 %6, 1
  br i1 %14, label %15, label %19

15:                                               ; preds = %8
  %16 = load ptr, ptr @data_text_lines_handle, align 8
  %17 = tail call ptr @tvb_new_subset_length(ptr noundef %2, i32 noundef %3, i32 noundef %4)
  %18 = tail call i32 @call_dissector(ptr noundef %16, ptr noundef %17, ptr noundef %1, ptr noundef %0)
  br label %59

19:                                               ; preds = %8
  %20 = icmp ne ptr %11, null
  %or.cond48.not = select i1 %5, i1 %20, i1 false
  br i1 %or.cond48.not, label %21, label %59

21:                                               ; preds = %19
  %22 = getelementptr inbounds nuw i8, ptr %7, i64 8
  %23 = load ptr, ptr %22, align 8
  %24 = icmp eq ptr %23, null
  br i1 %24, label %59, label %25

25:                                               ; preds = %21
  %26 = tail call ptr @tvb_new_subset_length(ptr noundef %2, i32 noundef %3, i32 noundef %4)
  %27 = load i8, ptr @grpc_detect_json_automatically, align 1, !range !10, !noundef !11
  %28 = trunc nuw i8 %27 to i1
  %29 = icmp sgt i32 %4, 3
  %or.cond = and i1 %29, %28
  br i1 %or.cond, label %30, label %44

30:                                               ; preds = %25
  %31 = tail call zeroext i8 @tvb_get_uint8(ptr noundef %26, i32 noundef 0)
  %32 = icmp eq i8 %31, 123
  br i1 %32, label %33, label %44

33:                                               ; preds = %30
  call void @llvm.lifetime.start.p0(i64 3, ptr nonnull %9) #8
  %34 = add nsw i32 %4, -3
  %35 = call ptr @tvb_memcpy(ptr noundef %26, ptr noundef nonnull %9, i32 noundef %34, i64 noundef 3)
  %36 = getelementptr inbounds nuw i8, ptr %9, i64 2
  %37 = load i8, ptr %36, align 1
  %38 = icmp eq i8 %37, 125
  %39 = getelementptr inbounds nuw i8, ptr %9, i64 1
  %40 = load i8, ptr %39, align 1
  %41 = icmp eq i8 %40, 125
  %or.cond5 = select i1 %38, i1 true, i1 %41
  %42 = load i8, ptr %9, align 1
  %43 = icmp eq i8 %42, 125
  %or.cond9 = select i1 %or.cond5, i1 true, i1 %43
  %spec.select = select i1 %or.cond9, ptr @.str.35, ptr %11
  call void @llvm.lifetime.end.p0(i64 3, ptr nonnull %9) #8
  br label %44

44:                                               ; preds = %33, %30, %25
  %.0 = phi ptr [ %spec.select, %33 ], [ %11, %30 ], [ %11, %25 ]
  %45 = getelementptr inbounds nuw i8, ptr %1, i64 408
  %46 = load ptr, ptr %45, align 8
  %47 = load ptr, ptr %22, align 8
  %48 = load i8, ptr %7, align 8, !range !10, !noundef !11
  %49 = trunc nuw i8 %48 to i1
  %50 = select i1 %49, ptr @.str.79, ptr @.str.80
  %51 = call noalias ptr (ptr, ptr, ...) @wmem_strconcat(ptr noundef %46, ptr noundef %.0, ptr noundef nonnull @.str.78, ptr noundef %47, ptr noundef nonnull @.str.78, ptr noundef nonnull %50, ptr noundef null)
  %52 = call ptr @proto_tree_get_parent_tree(ptr noundef %0)
  %53 = load ptr, ptr @grpc_message_type_subdissector_table, align 8
  %54 = call i32 @dissector_try_string_with_data(ptr noundef %53, ptr noundef %51, ptr noundef %26, ptr noundef %1, ptr noundef %52, i1 noundef zeroext true, ptr noundef %51)
  %55 = icmp eq i32 %54, 0
  br i1 %55, label %56, label %59

56:                                               ; preds = %44
  %57 = load ptr, ptr @grpc_message_type_subdissector_table, align 8
  %58 = call i32 @dissector_try_string_with_data(ptr noundef %57, ptr noundef %.0, ptr noundef %26, ptr noundef %1, ptr noundef %52, i1 noundef zeroext true, ptr noundef %51)
  br label %59

59:                                               ; preds = %44, %56, %21, %19, %15
  ret void
}